target datalayout = "e-m:e-p270:32:32-p271:32:32-p272:64:64-i64:64-i128:128-f80:128-n8:16:32:64-S128"
target triple = "x86_64-pc-linux-gnu"

%"class.open3d::geometry::MeshBase" = type { %"class.open3d::geometry::Geometry3D", %"class.std::vector", %"class.std::vector", %"class.std::vector" }
%"class.open3d::geometry::Geometry3D" = type { %"class.open3d::geometry::Geometry" }
%"class.open3d::geometry::Geometry" = type { ptr, i32, i32, %"class.std::__cxx11::basic_string" }
%"class.std::__cxx11::basic_string" = type { %"struct.std::__cxx11::basic_string<char>::_Alloc_hider", i64, %union.anon }
%"struct.std::__cxx11::basic_string<char>::_Alloc_hider" = type { ptr }
%union.anon = type { i64, [8 x i8] }
%"class.std::vector" = type { %"struct.std::_Vector_base" }
%"struct.std::_Vector_base" = type { %"struct.std::_Vector_base<Eigen::Matrix<double, 3, 1>, std::allocator<Eigen::Matrix<double, 3, 1>>>::_Vector_impl" }
%"struct.std::_Vector_base<Eigen::Matrix<double, 3, 1>, std::allocator<Eigen::Matrix<double, 3, 1>>>::_Vector_impl" = type { %"struct.std::_Vector_base<Eigen::Matrix<double, 3, 1>, std::allocator<Eigen::Matrix<double, 3, 1>>>::_Vector_impl_data" }
%"struct.std::_Vector_base<Eigen::Matrix<double, 3, 1>, std::allocator<Eigen::Matrix<double, 3, 1>>>::_Vector_impl_data" = type { ptr, ptr, ptr }

; Function Attrs: mustprogress ssp uwtable
define void @_ZNK6open3d8geometry8MeshBaseplERKS1_(ptr dead_on_unwind noalias writable sret(%"class.open3d::geometry::MeshBase") align 8 %0, ptr noundef nonnull align 8 dereferenceable(120) %1, ptr noundef nonnull align 8 dereferenceable(120) %2) #1 align 2 personality ptr @__gxx_personality_v0 {
  %4 = alloca ptr, align 8
  %5 = alloca ptr, align 8
  %6 = alloca ptr, align 8
  %7 = alloca %"class.open3d::geometry::MeshBase", align 8
  %8 = alloca ptr, align 8
  %9 = alloca i32, align 4
  store ptr %0, ptr %4, align 8
  store ptr %1, ptr %5, align 8, !tbaa !4
  store ptr %2, ptr %6, align 8, !tbaa !4
  %10 = load ptr, ptr %5, align 8
  %11 = load ptr, ptr %6, align 8, !tbaa !4
  call void @llvm.lifetime.start.p0(i64 120, ptr %7) #19
  call void @_ZN6open3d8geometry8MeshBaseC2ERKS1_(ptr noundef nonnull align 8 dereferenceable(120) %7, ptr noundef nonnull align 8 dereferenceable(120) %10)
  %12 = invoke noundef nonnull align 8 dereferenceable(120) ptr @_ZN6open3d8geometry8MeshBasepLERKS1_(ptr noundef nonnull align 8 dereferenceable(120) %7, ptr noundef nonnull align 8 dereferenceable(120) %11)
          to label %13 unwind label %15

13:                                               ; preds = %3
  invoke void @_ZN6open3d8geometry8MeshBaseC2ERKS1_(ptr noundef nonnull align 8 dereferenceable(120) %0, ptr noundef nonnull align 8 dereferenceable(120) %12)
          to label %14 unwind label %15

14:                                               ; preds = %13
  call void @_ZN6open3d8geometry8MeshBaseD2Ev(ptr noundef nonnull align 8 dereferenceable(120) %7) #19
  call void @llvm.lifetime.end.p0(i64 120, ptr %7) #19
  ret void

15:                                               ; preds = %13, %3
  %16 = landingpad { ptr, i32 }
          cleanup
  %17 = extractvalue { ptr, i32 } %16, 0
  store ptr %17, ptr %8, align 8
  %18 = extractvalue { ptr, i32 } %16, 1
  store i32 %18, ptr %9, align 4
  call void @_ZN6open3d8geometry8MeshBaseD2Ev(ptr noundef nonnull align 8 dereferenceable(120) %7) #19
  call void @llvm.lifetime.end.p0(i64 120, ptr %7) #19
  br label %19

19:                                               ; preds = %15
  %20 = load ptr, ptr %8, align 8
  %21 = load i32, ptr %9, align 4
  %22 = insertvalue { ptr, i32 } poison, ptr %20, 0
  %23 = insertvalue { ptr, i32 } %22, i32 %21, 1
  resume { ptr, i32 } %23
}