; Function Attrs: mustprogress ssp uwtable
define void @_ZNK6open3d8geometry8MeshBaseplERKS1_(ptr dead_on_unwind noalias writable sret(%"class.open3d::geometry::MeshBase") align 8 %0, ptr noundef nonnull align 8 dereferenceable(120) %1, ptr noundef nonnull align 8 dereferenceable(120) %2) local_unnamed_addr #3 align 2 personality ptr @__gxx_personality_v0 {
  %4 = alloca %"class.open3d::geometry::MeshBase", align 8
  call void @llvm.lifetime.start.p0(i64 120, ptr nonnull %4) #20
  call void @_ZN6open3d8geometry8MeshBaseC2ERKS1_(ptr noundef nonnull align 8 dereferenceable(120) %4, ptr noundef nonnull align 8 dereferenceable(120) %1)
  %5 = invoke noundef nonnull align 8 dereferenceable(120) ptr @_ZN6open3d8geometry8MeshBasepLERKS1_(ptr noundef nonnull align 8 dereferenceable(120) %4, ptr noundef nonnull align 8 dereferenceable(120) %2)
          to label %6 unwind label %41

6:                                                ; preds = %3
  invoke void @_ZN6open3d8geometry8MeshBaseC2ERKS1_(ptr noundef nonnull align 8 dereferenceable(120) %0, ptr noundef nonnull align 8 dereferenceable(120) %4)
          to label %7 unwind label %41

7:                                                ; preds = %6
  store ptr getelementptr inbounds nuw inrange(-16, 120) (i8, ptr @_ZTVN6open3d8geometry8MeshBaseE, i64 16), ptr %4, align 8, !tbaa !4
  %8 = getelementptr inbounds nuw i8, ptr %4, i64 96
  %9 = load ptr, ptr %8, align 8, !tbaa !7
  %.not.i.i.i.i = icmp eq ptr %9, null
  br i1 %.not.i.i.i.i, label %_ZNSt6vectorIN5Eigen6MatrixIdLi3ELi1ELi0ELi3ELi1EEESaIS2_EED2Ev.exit.i, label %10

10:                                               ; preds = %7
  %11 = getelementptr inbounds nuw i8, ptr %4, i64 112
  %12 = load ptr, ptr %11, align 8, !tbaa !12
  %13 = ptrtoint ptr %12 to i64
  %14 = ptrtoint ptr %9 to i64
  %15 = sub i64 %13, %14
  call void @_ZdlPvm(ptr noundef nonnull %9, i64 noundef %15) #17
  br label %_ZNSt6vectorIN5Eigen6MatrixIdLi3ELi1ELi0ELi3ELi1EEESaIS2_EED2Ev.exit.i

_ZNSt6vectorIN5Eigen6MatrixIdLi3ELi1ELi0ELi3ELi1EEESaIS2_EED2Ev.exit.i: ; preds = %10, %7
  %16 = getelementptr inbounds nuw i8, ptr %4, i64 72
  %17 = load ptr, ptr %16, align 8, !tbaa !7
  %.not.i.i.i1.i = icmp eq ptr %17, null
  br i1 %.not.i.i.i1.i, label %_ZNSt6vectorIN5Eigen6MatrixIdLi3ELi1ELi0ELi3ELi1EEESaIS2_EED2Ev.exit2.i, label %18

18:                                               ; preds = %_ZNSt6vectorIN5Eigen6MatrixIdLi3ELi1ELi0ELi3ELi1EEESaIS2_EED2Ev.exit.i
  %19 = getelementptr inbounds nuw i8, ptr %4, i64 88
  %20 = load ptr, ptr %19, align 8, !tbaa !12
  %21 = ptrtoint ptr %20 to i64
  %22 = ptrtoint ptr %17 to i64
  %23 = sub i64 %21, %22
  call void @_ZdlPvm(ptr noundef nonnull %17, i64 noundef %23) #17
  br label %_ZNSt6vectorIN5Eigen6MatrixIdLi3ELi1ELi0ELi3ELi1EEESaIS2_EED2Ev.exit2.i

_ZNSt6vectorIN5Eigen6MatrixIdLi3ELi1ELi0ELi3ELi1EEESaIS2_EED2Ev.exit2.i: ; preds = %18, %_ZNSt6vectorIN5Eigen6MatrixIdLi3ELi1ELi0ELi3ELi1EEESaIS2_EED2Ev.exit.i
  %24 = getelementptr inbounds nuw i8, ptr %4, i64 48
  %25 = load ptr, ptr %24, align 8, !tbaa !7
  %.not.i.i.i3.i = icmp eq ptr %25, null
  br i1 %.not.i.i.i3.i, label %_ZNSt6vectorIN5Eigen6MatrixIdLi3ELi1ELi0ELi3ELi1EEESaIS2_EED2Ev.exit4.i, label %26

26:                                               ; preds = %_ZNSt6vectorIN5Eigen6MatrixIdLi3ELi1ELi0ELi3ELi1EEESaIS2_EED2Ev.exit2.i
  %27 = getelementptr inbounds nuw i8, ptr %4, i64 64
  %28 = load ptr, ptr %27, align 8, !tbaa !12
  %29 = ptrtoint ptr %28 to i64
  %30 = ptrtoint ptr %25 to i64
  %31 = sub i64 %29, %30
  call void @_ZdlPvm(ptr noundef nonnull %25, i64 noundef %31) #17
  br label %_ZNSt6vectorIN5Eigen6MatrixIdLi3ELi1ELi0ELi3ELi1EEESaIS2_EED2Ev.exit4.i

_ZNSt6vectorIN5Eigen6MatrixIdLi3ELi1ELi0ELi3ELi1EEESaIS2_EED2Ev.exit4.i: ; preds = %26, %_ZNSt6vectorIN5Eigen6MatrixIdLi3ELi1ELi0ELi3ELi1EEESaIS2_EED2Ev.exit2.i
  store ptr getelementptr inbounds nuw inrange(-16, 32) (i8, ptr @_ZTVN6open3d8geometry8GeometryE, i64 16), ptr %4, align 8, !tbaa !4
  %32 = getelementptr inbounds nuw i8, ptr %4, i64 16
  %33 = load ptr, ptr %32, align 8, !tbaa !13
  %34 = getelementptr inbounds nuw i8, ptr %4, i64 32
  %35 = icmp eq ptr %33, %34
  br i1 %35, label %_ZNKSt7__cxx1112basic_stringIcSt11char_traitsIcESaIcEE11_M_is_localEv.exit.thread.i.i.i.i, label %_ZNKSt7__cxx1112basic_stringIcSt11char_traitsIcESaIcEE11_M_is_localEv.exit.i.i.i.i

_ZNKSt7__cxx1112basic_stringIcSt11char_traitsIcESaIcEE11_M_is_localEv.exit.thread.i.i.i.i: ; preds = %_ZNSt6vectorIN5Eigen6MatrixIdLi3ELi1ELi0ELi3ELi1EEESaIS2_EED2Ev.exit4.i
  %36 = getelementptr inbounds nuw i8, ptr %4, i64 24
  %37 = load i64, ptr %36, align 8, !tbaa !18
  %38 = icmp ult i64 %37, 16
  call void @llvm.assume(i1 %38)
  br label %_ZN6open3d8geometry8MeshBaseD2Ev.exit

_ZNKSt7__cxx1112basic_stringIcSt11char_traitsIcESaIcEE11_M_is_localEv.exit.i.i.i.i: ; preds = %_ZNSt6vectorIN5Eigen6MatrixIdLi3ELi1ELi0ELi3ELi1EEESaIS2_EED2Ev.exit4.i
  %39 = load i64, ptr %34, align 8, !tbaa !19
  %40 = add i64 %39, 1
  call void @_ZdlPvm(ptr noundef %33, i64 noundef %40) #17
  br label %_ZN6open3d8geometry8MeshBaseD2Ev.exit

_ZN6open3d8geometry8MeshBaseD2Ev.exit:            ; preds = %_ZNKSt7__cxx1112basic_stringIcSt11char_traitsIcESaIcEE11_M_is_localEv.exit.thread.i.i.i.i, %_ZNKSt7__cxx1112basic_stringIcSt11char_traitsIcESaIcEE11_M_is_localEv.exit.i.i.i.i
  call void @llvm.lifetime.end.p0(i64 120, ptr nonnull %4) #20
  ret void

41:                                               ; preds = %6, %3
  %42 = landingpad { ptr, i32 }
          cleanup
  call void @_ZN6open3d8geometry8MeshBaseD2Ev(ptr noundef nonnull align 8 dereferenceable(120) %4) #20
  call void @llvm.lifetime.end.p0(i64 120, ptr nonnull %4) #20
  resume { ptr, i32 } %42
}